; ModuleID = '14/1036.c'
source_filename = "14/1036.c"
target datalayout = "e-m:e-p270:32:32-p271:32:32-p272:64:64-i64:64-f80:128-n8:16:32:64-S128"
target triple = "x86_64-pc-linux-gnu"

@.str = private unnamed_addr constant [3 x i8] c"%d\00", align 1
@.str.1 = private unnamed_addr constant [9 x i8] c"%d %d %d\00", align 1
@.str.2 = private unnamed_addr constant [7 x i8] c"%d %d\0A\00", align 1

; Function Attrs: noinline nounwind uwtable
define dso_local i32 @main(i32 %0, i8** %1) #0 {
  %3 = alloca i32, align 4
  %4 = alloca i32, align 4
  %5 = alloca i8**, align 8
  %6 = alloca i32, align 4
  %7 = alloca i32*, align 8
  %8 = alloca i32*, align 8
  %9 = alloca i32*, align 8
  %10 = alloca i32*, align 8
  %11 = alloca i32, align 4
  %12 = alloca i32, align 4
  %13 = alloca i32, align 4
  %14 = alloca i32, align 4
  store i32 0, i32* %3, align 4
  store i32 %0, i32* %4, align 4
  store i8** %1, i8*** %5, align 8
  store i32 0, i32* %13, align 4
  store i32 0, i32* %14, align 4
  %15 = call i32 (i8*, ...) @__isoc99_scanf(i8* getelementptr inbounds ([3 x i8], [3 x i8]* @.str, i64 0, i64 0), i32* %6)
  %16 = load i32, i32* %6, align 4
  %17 = sext i32 %16 to i64
  %18 = mul i64 4, %17
  %19 = call noalias i8* @malloc(i64 %18) #3
  %20 = bitcast i8* %19 to i32*
  store i32* %20, i32** %7, align 8
  %21 = load i32, i32* %6, align 4
  %22 = sext i32 %21 to i64
  %23 = mul i64 4, %22
  %24 = call noalias i8* @malloc(i64 %23) #3
  %25 = bitcast i8* %24 to i32*
  store i32* %25, i32** %8, align 8
  %26 = load i32, i32* %6, align 4
  %27 = sext i32 %26 to i64
  %28 = mul i64 4, %27
  %29 = call noalias i8* @malloc(i64 %28) #3
  %30 = bitcast i8* %29 to i32*
  store i32* %30, i32** %9, align 8
  %31 = load i32, i32* %6, align 4
  %32 = sext i32 %31 to i64
  %33 = mul i64 4, %32
  %34 = call noalias i8* @malloc(i64 %33) #3
  %35 = bitcast i8* %34 to i32*
  store i32* %35, i32** %10, align 8
  store i32 0, i32* %11, align 4
  br label %36

36:                                               ; preds = %69, %2
  %37 = load i32, i32* %11, align 4
  %38 = load i32, i32* %6, align 4
  %39 = icmp slt i32 %37, %38
  br i1 %39, label %40, label %72

40:                                               ; preds = %36
  %41 = load i32*, i32** %7, align 8
  %42 = load i32, i32* %11, align 4
  %43 = sext i32 %42 to i64
  %44 = getelementptr inbounds i32, i32* %41, i64 %43
  %45 = load i32*, i32** %8, align 8
  %46 = load i32, i32* %11, align 4
  %47 = sext i32 %46 to i64
  %48 = getelementptr inbounds i32, i32* %45, i64 %47
  %49 = load i32*, i32** %9, align 8
  %50 = load i32, i32* %11, align 4
  %51 = sext i32 %50 to i64
  %52 = getelementptr inbounds i32, i32* %49, i64 %51
  %53 = call i32 (i8*, ...) @__isoc99_scanf(i8* getelementptr inbounds ([9 x i8], [9 x i8]* @.str.1, i64 0, i64 0), i32* %44, i32* %48, i32* %52)
  %54 = load i32*, i32** %8, align 8
  %55 = load i32, i32* %11, align 4
  %56 = sext i32 %55 to i64
  %57 = getelementptr inbounds i32, i32* %54, i64 %56
  %58 = load i32, i32* %57, align 4
  %59 = load i32*, i32** %9, align 8
  %60 = load i32, i32* %11, align 4
  %61 = sext i32 %60 to i64
  %62 = getelementptr inbounds i32, i32* %59, i64 %61
  %63 = load i32, i32* %62, align 4
  %64 = add nsw i32 %58, %63
  %65 = load i32*, i32** %10, align 8
  %66 = load i32, i32* %11, align 4
  %67 = sext i32 %66 to i64
  %68 = getelementptr inbounds i32, i32* %65, i64 %67
  store i32 %64, i32* %68, align 4
  br label %69

69:                                               ; preds = %40
  %70 = load i32, i32* %11, align 4
  %71 = add nsw i32 %70, 1
  store i32 %71, i32* %11, align 4
  br label %36

72:                                               ; preds = %36
  store i32 0, i32* %12, align 4
  br label %73

73:                                               ; preds = %143, %72
  %74 = load i32, i32* %12, align 4
  %75 = icmp slt i32 %74, 3
  br i1 %75, label %76, label %146

76:                                               ; preds = %73
  store i32 0, i32* %11, align 4
  br label %77

77:                                               ; preds = %139, %76
  %78 = load i32, i32* %11, align 4
  %79 = load i32, i32* %6, align 4
  %80 = sub nsw i32 %79, 1
  %81 = icmp slt i32 %78, %80
  br i1 %81, label %82, label %142

82:                                               ; preds = %77
  %83 = load i32*, i32** %10, align 8
  %84 = load i32, i32* %11, align 4
  %85 = sext i32 %84 to i64
  %86 = getelementptr inbounds i32, i32* %83, i64 %85
  %87 = load i32, i32* %86, align 4
  %88 = load i32*, i32** %10, align 8
  %89 = load i32, i32* %11, align 4
  %90 = add nsw i32 %89, 1
  %91 = sext i32 %90 to i64
  %92 = getelementptr inbounds i32, i32* %88, i64 %91
  %93 = load i32, i32* %92, align 4
  %94 = icmp sge i32 %87, %93
  br i1 %94, label %95, label %138

95:                                               ; preds = %82
  %96 = load i32*, i32** %10, align 8
  %97 = load i32, i32* %11, align 4
  %98 = sext i32 %97 to i64
  %99 = getelementptr inbounds i32, i32* %96, i64 %98
  %100 = load i32, i32* %99, align 4
  store i32 %100, i32* %13, align 4
  %101 = load i32*, i32** %10, align 8
  %102 = load i32, i32* %11, align 4
  %103 = add nsw i32 %102, 1
  %104 = sext i32 %103 to i64
  %105 = getelementptr inbounds i32, i32* %101, i64 %104
  %106 = load i32, i32* %105, align 4
  %107 = load i32*, i32** %10, align 8
  %108 = load i32, i32* %11, align 4
  %109 = sext i32 %108 to i64
  %110 = getelementptr inbounds i32, i32* %107, i64 %109
  store i32 %106, i32* %110, align 4
  %111 = load i32, i32* %13, align 4
  %112 = load i32*, i32** %10, align 8
  %113 = load i32, i32* %11, align 4
  %114 = add nsw i32 %113, 1
  %115 = sext i32 %114 to i64
  %116 = getelementptr inbounds i32, i32* %112, i64 %115
  store i32 %111, i32* %116, align 4
  %117 = load i32*, i32** %7, align 8
  %118 = load i32, i32* %11, align 4
  %119 = sext i32 %118 to i64
  %120 = getelementptr inbounds i32, i32* %117, i64 %119
  %121 = load i32, i32* %120, align 4
  store i32 %121, i32* %14, align 4
  %122 = load i32*, i32** %7, align 8
  %123 = load i32, i32* %11, align 4
  %124 = add nsw i32 %123, 1
  %125 = sext i32 %124 to i64
  %126 = getelementptr inbounds i32, i32* %122, i64 %125
  %127 = load i32, i32* %126, align 4
  %128 = load i32*, i32** %7, align 8
  %129 = load i32, i32* %11, align 4
  %130 = sext i32 %129 to i64
  %131 = getelementptr inbounds i32, i32* %128, i64 %130
  store i32 %127, i32* %131, align 4
  %132 = load i32, i32* %14, align 4
  %133 = load i32*, i32** %7, align 8
  %134 = load i32, i32* %11, align 4
  %135 = add nsw i32 %134, 1
  %136 = sext i32 %135 to i64
  %137 = getelementptr inbounds i32, i32* %133, i64 %136
  store i32 %132, i32* %137, align 4
  br label %138

138:                                              ; preds = %95, %82
  br label %139

139:                                              ; preds = %138
  %140 = load i32, i32* %11, align 4
  %141 = add nsw i32 %140, 1
  store i32 %141, i32* %11, align 4
  br label %77

142:                                              ; preds = %77
  br label %143

143:                                              ; preds = %142
  %144 = load i32, i32* %12, align 4
  %145 = add nsw i32 %144, 1
  store i32 %145, i32* %12, align 4
  br label %73

146:                                              ; preds = %73
  %147 = load i32*, i32** %7, align 8
  %148 = load i32, i32* %6, align 4
  %149 = sub nsw i32 %148, 1
  %150 = sext i32 %149 to i64
  %151 = getelementptr inbounds i32, i32* %147, i64 %150
  %152 = load i32, i32* %151, align 4
  %153 = load i32*, i32** %10, align 8
  %154 = load i32, i32* %6, align 4
  %155 = sub nsw i32 %154, 1
  %156 = sext i32 %155 to i64
  %157 = getelementptr inbounds i32, i32* %153, i64 %156
  %158 = load i32, i32* %157, align 4
  %159 = call i32 (i8*, ...) @printf(i8* getelementptr inbounds ([7 x i8], [7 x i8]* @.str.2, i64 0, i64 0), i32 %152, i32 %158)
  %160 = load i32*, i32** %7, align 8
  %161 = load i32, i32* %6, align 4
  %162 = sub nsw i32 %161, 2
  %163 = sext i32 %162 to i64
  %164 = getelementptr inbounds i32, i32* %160, i64 %163
  %165 = load i32, i32* %164, align 4
  %166 = load i32*, i32** %10, align 8
  %167 = load i32, i32* %6, align 4
  %168 = sub nsw i32 %167, 2
  %169 = sext i32 %168 to i64
  %170 = getelementptr inbounds i32, i32* %166, i64 %169
  %171 = load i32, i32* %170, align 4
  %172 = call i32 (i8*, ...) @printf(i8* getelementptr inbounds ([7 x i8], [7 x i8]* @.str.2, i64 0, i64 0), i32 %165, i32 %171)
  %173 = load i32*, i32** %7, align 8
  %174 = load i32, i32* %6, align 4
  %175 = sub nsw i32 %174, 3
  %176 = sext i32 %175 to i64
  %177 = getelementptr inbounds i32, i32* %173, i64 %176
  %178 = load i32, i32* %177, align 4
  %179 = load i32*, i32** %10, align 8
  %180 = load i32, i32* %6, align 4
  %181 = sub nsw i32 %180, 3
  %182 = sext i32 %181 to i64
  %183 = getelementptr inbounds i32, i32* %179, i64 %182
  %184 = load i32, i32* %183, align 4
  %185 = call i32 (i8*, ...) @printf(i8* getelementptr inbounds ([7 x i8], [7 x i8]* @.str.2, i64 0, i64 0), i32 %178, i32 %184)
  ret i32 0
}

declare dso_local i32 @__isoc99_scanf(i8*, ...) #1

; Function Attrs: nounwind
declare dso_local noalias i8* @malloc(i64) #2

declare dso_local i32 @printf(i8*, ...) #1


!llvm.module.flags = !{!0}
!llvm.ident = !{!1}

!0 = !{i32 1, !"wchar_size", i32 4}
!1 = !{!"clang version 10.0.0-4ubuntu1 "}
